target datalayout = "e-m:e-p270:32:32-p271:32:32-p272:64:64-i64:64-i128:128-f80:128-n8:16:32:64-S128"
target triple = "x86_64-pc-linux-gnu"

%"class.(anonymous namespace)::itanium_demangle::Node" = type <{ ptr, i8, i16, [5 x i8] }>
%"class.(anonymous namespace)::itanium_demangle::Node.base" = type <{ ptr, i8, i16 }>
%"class.(anonymous namespace)::itanium_demangle::PointerType" = type { %"class.(anonymous namespace)::itanium_demangle::Node.base", ptr }

; Function Attrs: mustprogress uwtable
define internal noundef zeroext i1 @_ZNK12_GLOBAL__N_116itanium_demangle4Node15hasRHSComponentERNS0_12OutputBufferE(ptr noundef nonnull align 8 dereferenceable(11) %0, ptr noundef nonnull align 8 dereferenceable(44) %1) #3 align 2 {
  %3 = alloca i1, align 1
  %4 = alloca ptr, align 8
  %5 = alloca ptr, align 8
  store ptr %0, ptr %4, align 8, !tbaa !4
  store ptr %1, ptr %5, align 8, !tbaa !226
  %6 = load ptr, ptr %4, align 8
  %7 = getelementptr inbounds nuw %"class.(anonymous namespace)::itanium_demangle::Node", ptr %6, i32 0, i32 2
  %8 = load i16, ptr %7, align 1
  %9 = lshr i16 %8, 6
  %10 = and i16 %9, 3
  %11 = trunc i16 %10 to i8
  %12 = icmp ne i8 %11, 2
  br i1 %12, label %13, label %20

13:                                               ; preds = %2
  %14 = getelementptr inbounds nuw %"class.(anonymous namespace)::itanium_demangle::Node", ptr %6, i32 0, i32 2
  %15 = load i16, ptr %14, align 1
  %16 = lshr i16 %15, 6
  %17 = and i16 %16, 3
  %18 = trunc i16 %17 to i8
  %19 = icmp eq i8 %18, 0
  store i1 %19, ptr %3, align 1
  br label %26

20:                                               ; preds = %2
  %21 = load ptr, ptr %5, align 8, !tbaa !226
  %22 = load ptr, ptr %6, align 8, !tbaa !232
  %23 = getelementptr inbounds ptr, ptr %22, i64 0
  %24 = load ptr, ptr %23, align 8
  %25 = call noundef zeroext i1 %24(ptr noundef nonnull align 8 dereferenceable(11) %6, ptr noundef nonnull align 8 dereferenceable(44) %21)
  store i1 %25, ptr %3, align 1
  br label %26

26:                                               ; preds = %20, %13
  %27 = load i1, ptr %3, align 1
  ret i1 %27
}

; Function Attrs: mustprogress uwtable
define internal noundef zeroext i1 @_ZNK12_GLOBAL__N_116itanium_demangle11PointerType19hasRHSComponentSlowERNS0_12OutputBufferE(ptr noundef nonnull align 8 dereferenceable(24) %0, ptr noundef nonnull align 8 dereferenceable(44) %1) unnamed_addr #3 align 2 {
  %3 = alloca ptr, align 8
  %4 = alloca ptr, align 8
  store ptr %0, ptr %3, align 8, !tbaa !42
  store ptr %1, ptr %4, align 8, !tbaa !226
  %5 = load ptr, ptr %3, align 8
  %6 = getelementptr inbounds nuw %"class.(anonymous namespace)::itanium_demangle::PointerType", ptr %5, i32 0, i32 1
  %7 = load ptr, ptr %6, align 8, !tbaa !503
  %8 = load ptr, ptr %4, align 8, !tbaa !226
  %9 = call noundef zeroext i1 @_ZNK12_GLOBAL__N_116itanium_demangle4Node15hasRHSComponentERNS0_12OutputBufferE(ptr noundef nonnull align 8 dereferenceable(11) %7, ptr noundef nonnull align 8 dereferenceable(44) %8)
  ret i1 %9
}