; Function Attrs: mustprogress uwtable
define internal noundef zeroext i1 @_ZNK12_GLOBAL__N_116itanium_demangle11PointerType19hasRHSComponentSlowERNS0_12OutputBufferE(ptr noundef nonnull readonly align 8 captures(none) dereferenceable(24) %0, ptr noundef nonnull align 8 dereferenceable(44) %1) unnamed_addr #2 align 2 {
  %3 = getelementptr inbounds nuw i8, ptr %0, i64 16
  %4 = load ptr, ptr %3, align 8, !tbaa !252
  %5 = getelementptr inbounds nuw i8, ptr %4, i64 9
  %6 = load i16, ptr %5, align 1
  %7 = trunc i16 %6 to i8
  %.not.i = icmp slt i8 %7, -64
  br i1 %.not.i, label %10, label %8

8:                                                ; preds = %2
  %9 = icmp ult i8 %7, 64
  br label %_ZNK12_GLOBAL__N_116itanium_demangle4Node15hasRHSComponentERNS0_12OutputBufferE.exit

10:                                               ; preds = %2
  %11 = load ptr, ptr %4, align 8, !tbaa !214
  %12 = load ptr, ptr %11, align 8
  %13 = tail call noundef zeroext i1 %12(ptr noundef nonnull align 8 dereferenceable(11) %4, ptr noundef nonnull align 8 dereferenceable(44) %1)
  br label %_ZNK12_GLOBAL__N_116itanium_demangle4Node15hasRHSComponentERNS0_12OutputBufferE.exit

_ZNK12_GLOBAL__N_116itanium_demangle4Node15hasRHSComponentERNS0_12OutputBufferE.exit: ; preds = %8, %10
  %.0.i = phi i1 [ %9, %8 ], [ %13, %10 ]
  ret i1 %.0.i
}